target datalayout = "e-m:e-p270:32:32-p271:32:32-p272:64:64-i64:64-i128:128-f80:128-n8:16:32:64-S128"
target triple = "x86_64-pc-linux-gnu"

%struct.pmix_pointer_array_t = type { %struct.pmix_object_t, i32, i32, i32, i32, i32, ptr, ptr }
%struct.pmix_object_t = type { %union.pthread_mutex_t, ptr, i32, %struct.pmix_tma }
%union.pthread_mutex_t = type { %struct.__pthread_mutex_s }
%struct.__pthread_mutex_s = type { i32, i32, i32, i32, i32, i16, i16, %struct.__pthread_internal_list }
%struct.__pthread_internal_list = type { ptr, ptr }
%struct.pmix_tma = type { ptr, ptr, ptr, ptr, ptr, ptr, ptr, ptr }
%struct.pmix_bfrop_type_info_t = type { %struct.pmix_object_t, i16, ptr, ptr, ptr, ptr, ptr }

; Function Attrs: inlinehint nounwind uwtable
define internal ptr @pmix_pointer_array_get_item(ptr noundef %0, i32 noundef %1) #3 {
  %3 = alloca ptr, align 8
  %4 = alloca ptr, align 8
  %5 = alloca i32, align 4
  %6 = alloca ptr, align 8
  %7 = alloca i32, align 4
  store ptr %0, ptr %4, align 8, !tbaa !13
  store i32 %1, ptr %5, align 4, !tbaa !11
  call void @llvm.lifetime.start.p0(i64 8, ptr %6) #11
  %8 = load i32, ptr %5, align 4, !tbaa !11
  %9 = icmp sgt i32 0, %8
  br i1 %9, label %16, label %10

10:                                               ; preds = %2
  %11 = load ptr, ptr %4, align 8, !tbaa !13
  %12 = getelementptr inbounds nuw %struct.pmix_pointer_array_t, ptr %11, i32 0, i32 3
  %13 = load i32, ptr %12, align 8, !tbaa !33
  %14 = load i32, ptr %5, align 4, !tbaa !11
  %15 = icmp sle i32 %13, %14
  br label %16

16:                                               ; preds = %10, %2
  %17 = phi i1 [ true, %2 ], [ %15, %10 ]
  %18 = xor i1 %17, true
  %19 = xor i1 %18, true
  %20 = zext i1 %19 to i32
  %21 = sext i32 %20 to i64
  %22 = call i64 @llvm.expect.i64(i64 %21, i64 0)
  %23 = icmp ne i64 %22, 0
  br i1 %23, label %24, label %25

24:                                               ; preds = %16
  store ptr null, ptr %3, align 8
  store i32 1, ptr %7, align 4
  br label %34

25:                                               ; preds = %16
  %26 = load ptr, ptr %4, align 8, !tbaa !13
  %27 = getelementptr inbounds nuw %struct.pmix_pointer_array_t, ptr %26, i32 0, i32 7
  %28 = load ptr, ptr %27, align 8, !tbaa !36
  %29 = load i32, ptr %5, align 4, !tbaa !11
  %30 = sext i32 %29 to i64
  %31 = getelementptr inbounds ptr, ptr %28, i64 %30
  %32 = load ptr, ptr %31, align 8, !tbaa !3
  store ptr %32, ptr %6, align 8, !tbaa !3
  %33 = load ptr, ptr %6, align 8, !tbaa !3
  store ptr %33, ptr %3, align 8
  store i32 1, ptr %7, align 4
  br label %34

34:                                               ; preds = %25, %24
  call void @llvm.lifetime.end.p0(i64 8, ptr %6) #11
  %35 = load ptr, ptr %3, align 8
  ret ptr %35
}

; Function Attrs: nounwind uwtable
define i32 @pmix20_bfrop_unpack_string(ptr noundef %0, ptr noundef %1, ptr noundef %2, ptr noundef %3, i16 noundef zeroext %4) #0 {
  %6 = alloca i32, align 4
  %7 = alloca ptr, align 8
  %8 = alloca ptr, align 8
  %9 = alloca ptr, align 8
  %10 = alloca ptr, align 8
  %11 = alloca i16, align 2
  %12 = alloca i32, align 4
  %13 = alloca i32, align 4
  %14 = alloca i32, align 4
  %15 = alloca i32, align 4
  %16 = alloca ptr, align 8
  %17 = alloca ptr, align 8
  %18 = alloca i32, align 4
  %19 = alloca ptr, align 8
  store ptr %0, ptr %7, align 8, !tbaa !13
  store ptr %1, ptr %8, align 8, !tbaa !3
  store ptr %2, ptr %9, align 8, !tbaa !3
  store ptr %3, ptr %10, align 8, !tbaa !7
  store i16 %4, ptr %11, align 2, !tbaa !9
  call void @llvm.lifetime.start.p0(i64 4, ptr %12) #11
  call void @llvm.lifetime.start.p0(i64 4, ptr %13) #11
  call void @llvm.lifetime.start.p0(i64 4, ptr %14) #11
  call void @llvm.lifetime.start.p0(i64 4, ptr %15) #11
  store i32 1, ptr %15, align 4, !tbaa !11
  call void @llvm.lifetime.start.p0(i64 8, ptr %16) #11
  %20 = load ptr, ptr %9, align 8, !tbaa !3
  store ptr %20, ptr %16, align 8, !tbaa !76
  store i32 0, ptr %13, align 4, !tbaa !11
  br label %21

21:                                               ; preds = %98, %5
  %22 = load i32, ptr %13, align 4, !tbaa !11
  %23 = load ptr, ptr %10, align 8, !tbaa !7
  %24 = load i32, ptr %23, align 4, !tbaa !11
  %25 = icmp slt i32 %22, %24
  br i1 %25, label %26, label %101

26:                                               ; preds = %21
  br label %27

27:                                               ; preds = %26
  call void @llvm.lifetime.start.p0(i64 8, ptr %17) #11
  %28 = load ptr, ptr %7, align 8, !tbaa !13
  %29 = call ptr @pmix_pointer_array_get_item(ptr noundef %28, i32 noundef 9)
  store ptr %29, ptr %17, align 8, !tbaa !3
  %30 = load ptr, ptr %17, align 8, !tbaa !3
  %31 = icmp eq ptr null, %30
  br i1 %31, label %32, label %33

32:                                               ; preds = %27
  store i32 -16, ptr %12, align 4, !tbaa !11
  br label %40

33:                                               ; preds = %27
  %34 = load ptr, ptr %17, align 8, !tbaa !3
  %35 = getelementptr inbounds nuw %struct.pmix_bfrop_type_info_t, ptr %34, i32 0, i32 4
  %36 = load ptr, ptr %35, align 8, !tbaa !31
  %37 = load ptr, ptr %7, align 8, !tbaa !13
  %38 = load ptr, ptr %8, align 8, !tbaa !3
  %39 = call i32 %36(ptr noundef %37, ptr noundef %38, ptr noundef %14, ptr noundef %15, i16 noundef zeroext 9)
  store i32 %39, ptr %12, align 4, !tbaa !11
  br label %40

40:                                               ; preds = %33, %32
  call void @llvm.lifetime.end.p0(i64 8, ptr %17) #11
  br label %41

41:                                               ; preds = %40
  br label %42

42:                                               ; preds = %41
  %43 = load i32, ptr %12, align 4, !tbaa !11
  %44 = icmp ne i32 0, %43
  br i1 %44, label %45, label %47

45:                                               ; preds = %42
  %46 = load i32, ptr %12, align 4, !tbaa !11
  store i32 %46, ptr %6, align 4
  store i32 1, ptr %18, align 4
  br label %102

47:                                               ; preds = %42
  %48 = load i32, ptr %14, align 4, !tbaa !11
  %49 = icmp eq i32 0, %48
  br i1 %49, label %50, label %55

50:                                               ; preds = %47
  %51 = load ptr, ptr %16, align 8, !tbaa !76
  %52 = load i32, ptr %13, align 4, !tbaa !11
  %53 = sext i32 %52 to i64
  %54 = getelementptr inbounds ptr, ptr %51, i64 %53
  store ptr null, ptr %54, align 8, !tbaa !38
  br label %97

55:                                               ; preds = %47
  %56 = load i32, ptr %14, align 4, !tbaa !11
  %57 = sext i32 %56 to i64
  %58 = call noalias ptr @malloc(i64 noundef %57) #14
  %59 = load ptr, ptr %16, align 8, !tbaa !76
  %60 = load i32, ptr %13, align 4, !tbaa !11
  %61 = sext i32 %60 to i64
  %62 = getelementptr inbounds ptr, ptr %59, i64 %61
  store ptr %58, ptr %62, align 8, !tbaa !38
  %63 = load ptr, ptr %16, align 8, !tbaa !76
  %64 = load i32, ptr %13, align 4, !tbaa !11
  %65 = sext i32 %64 to i64
  %66 = getelementptr inbounds ptr, ptr %63, i64 %65
  %67 = load ptr, ptr %66, align 8, !tbaa !38
  %68 = icmp eq ptr null, %67
  br i1 %68, label %69, label %70

69:                                               ; preds = %55
  store i32 -29, ptr %6, align 4
  store i32 1, ptr %18, align 4
  br label %102

70:                                               ; preds = %55
  br label %71

71:                                               ; preds = %70
  call void @llvm.lifetime.start.p0(i64 8, ptr %19) #11
  %72 = load ptr, ptr %7, align 8, !tbaa !13
  %73 = call ptr @pmix_pointer_array_get_item(ptr noundef %72, i32 noundef 2)
  store ptr %73, ptr %19, align 8, !tbaa !3
  %74 = load ptr, ptr %19, align 8, !tbaa !3
  %75 = icmp eq ptr null, %74
  br i1 %75, label %76, label %77

76:                                               ; preds = %71
  store i32 -16, ptr %12, align 4, !tbaa !11
  br label %89

77:                                               ; preds = %71
  %78 = load ptr, ptr %19, align 8, !tbaa !3
  %79 = getelementptr inbounds nuw %struct.pmix_bfrop_type_info_t, ptr %78, i32 0, i32 4
  %80 = load ptr, ptr %79, align 8, !tbaa !31
  %81 = load ptr, ptr %7, align 8, !tbaa !13
  %82 = load ptr, ptr %8, align 8, !tbaa !3
  %83 = load ptr, ptr %16, align 8, !tbaa !76
  %84 = load i32, ptr %13, align 4, !tbaa !11
  %85 = sext i32 %84 to i64
  %86 = getelementptr inbounds ptr, ptr %83, i64 %85
  %87 = load ptr, ptr %86, align 8, !tbaa !38
  %88 = call i32 %80(ptr noundef %81, ptr noundef %82, ptr noundef %87, ptr noundef %14, i16 noundef zeroext 2)
  store i32 %88, ptr %12, align 4, !tbaa !11
  br label %89

89:                                               ; preds = %77, %76
  call void @llvm.lifetime.end.p0(i64 8, ptr %19) #11
  br label %90

90:                                               ; preds = %89
  br label %91

91:                                               ; preds = %90
  %92 = load i32, ptr %12, align 4, !tbaa !11
  %93 = icmp ne i32 0, %92
  br i1 %93, label %94, label %96

94:                                               ; preds = %91
  %95 = load i32, ptr %12, align 4, !tbaa !11
  store i32 %95, ptr %6, align 4
  store i32 1, ptr %18, align 4
  br label %102

96:                                               ; preds = %91
  br label %97

97:                                               ; preds = %96, %50
  br label %98

98:                                               ; preds = %97
  %99 = load i32, ptr %13, align 4, !tbaa !11
  %100 = add nsw i32 %99, 1
  store i32 %100, ptr %13, align 4, !tbaa !11
  br label %21, !llvm.loop !78

101:                                              ; preds = %21
  store i32 0, ptr %6, align 4
  store i32 1, ptr %18, align 4
  br label %102

102:                                              ; preds = %101, %94, %69, %45
  call void @llvm.lifetime.end.p0(i64 8, ptr %16) #11
  call void @llvm.lifetime.end.p0(i64 4, ptr %15) #11
  call void @llvm.lifetime.end.p0(i64 4, ptr %14) #11
  call void @llvm.lifetime.end.p0(i64 4, ptr %13) #11
  call void @llvm.lifetime.end.p0(i64 4, ptr %12) #11
  %103 = load i32, ptr %6, align 4
  ret i32 %103
}